; Function Attrs: mustprogress uwtable
define hidden void @_ZN5osgeo4proj8metadata14VerticalExtentC2EddRKN7dropbox6oxygen2nnISt10shared_ptrINS0_6common13UnitOfMeasureEEEE(ptr noundef nonnull align 8 dereferenceable(32) %0, double noundef %1, double noundef %2, ptr nocapture noundef nonnull readonly align 8 dereferenceable(16) %3) unnamed_addr #0 align 2 personality ptr @__gxx_personality_v0 {
  tail call void @_ZN5osgeo4proj4util10BaseObjectC2Ev(ptr noundef nonnull align 8 dereferenceable(16) %0)
  %5 = getelementptr inbounds i8, ptr %0, i64 16
  store ptr getelementptr inbounds inrange(-16, 24) ({ [5 x ptr], [5 x ptr] }, ptr @_ZTVN5osgeo4proj8metadata14VerticalExtentE, i64 0, i32 0, i64 2), ptr %0, align 8
  store ptr getelementptr inbounds inrange(-16, 24) ({ [5 x ptr], [5 x ptr] }, ptr @_ZTVN5osgeo4proj8metadata14VerticalExtentE, i64 0, i32 1, i64 2), ptr %5, align 8
  tail call void @llvm.experimental.noalias.scope.decl(metadata !43)
  %6 = invoke noalias noundef nonnull dereferenceable(32) ptr @_Znwm(i64 noundef 32) #27
          to label %.noexc unwind label %23

.noexc:                                           ; preds = %4
  store double %1, ptr %6, align 8, !noalias !43
  %7 = getelementptr inbounds i8, ptr %6, i64 8
  store double %2, ptr %7, align 8, !noalias !43
  %8 = getelementptr inbounds i8, ptr %6, i64 16
  %9 = load ptr, ptr %3, align 8, !noalias !43
  store ptr %9, ptr %8, align 8, !noalias !43
  %10 = getelementptr inbounds i8, ptr %6, i64 24
  %11 = getelementptr inbounds i8, ptr %3, i64 8
  %12 = load ptr, ptr %11, align 8, !noalias !43
  store ptr %12, ptr %10, align 8, !noalias !43
  %.not.i.i.i.i.i.i = icmp eq ptr %12, null
  br i1 %.not.i.i.i.i.i.i, label %21, label %13

13:                                               ; preds = %.noexc
  %14 = getelementptr inbounds i8, ptr %12, i64 8
  %15 = load i8, ptr @__libc_single_threaded, align 1, !noalias !43
  %.not.i.i.i.i.i.i.i = icmp eq i8 %15, 0
  br i1 %.not.i.i.i.i.i.i.i, label %19, label %16

16:                                               ; preds = %13
  %17 = load i32, ptr %14, align 4, !noalias !43
  %18 = add nsw i32 %17, 1
  store i32 %18, ptr %14, align 4, !noalias !43
  br label %21

19:                                               ; preds = %13
  %20 = atomicrmw volatile add ptr %14, i32 1 acq_rel, align 4, !noalias !43
  br label %21

21:                                               ; preds = %19, %16, %.noexc
  %22 = getelementptr inbounds i8, ptr %0, i64 24
  store ptr %6, ptr %22, align 8, !alias.scope !43
  ret void

23:                                               ; preds = %4
  %24 = landingpad { ptr, i32 }
          cleanup
  tail call void @_ZN5osgeo4proj4util11IComparableD2Ev(ptr noundef nonnull align 8 dereferenceable(8) %5) #28
  tail call void @_ZN5osgeo4proj4util10BaseObjectD2Ev(ptr noundef nonnull align 8 dereferenceable(16) %0) #28
  resume { ptr, i32 } %24
}